; Function Attrs: nounwind uwtable
define hidden range(i32 -1, 1) i32 @output_png(ptr noundef %0, ptr noundef %1) local_unnamed_addr #0 {
  %3 = alloca %struct.lstopo_cairo_output, align 8
  call void @llvm.lifetime.start.p0(i64 24, ptr nonnull %3) #13
  %4 = getelementptr inbounds nuw i8, ptr %0, i64 32
  %5 = load i32, ptr %4, align 8, !tbaa !96
  %6 = tail call noalias ptr @open_output(ptr noundef %1, i32 noundef %5) #13
  %.not = icmp eq ptr %6, null
  br i1 %.not, label %7, label %13

7:                                                ; preds = %2
  %8 = load ptr, ptr @stderr, align 8, !tbaa !26
  %9 = tail call ptr @__errno_location() #17
  %10 = load i32, ptr %9, align 4, !tbaa !97
  %11 = tail call ptr @strerror(i32 noundef %10) #13
  %12 = tail call i32 (ptr, ptr, ...) @fprintf(ptr noundef %8, ptr noundef nonnull @.str.22, ptr noundef %1, ptr noundef %11) #18
  br label %55

13:                                               ; preds = %2
  %14 = getelementptr inbounds nuw i8, ptr %3, i64 8
  call void @llvm.memset.p0.i64(ptr noundef nonnull align 8 dereferenceable(24) %14, i8 0, i64 16, i1 false)
  store ptr %0, ptr %3, align 8, !tbaa !4
  %15 = getelementptr inbounds nuw i8, ptr %0, i64 1584
  store ptr %3, ptr %15, align 8, !tbaa !12
  %16 = getelementptr inbounds nuw i8, ptr %0, i64 1600
  store ptr @png_draw_methods, ptr %16, align 8, !tbaa !25
  %17 = getelementptr inbounds nuw i8, ptr %0, i64 24
  store ptr %6, ptr %17, align 8, !tbaa !98
  %18 = call ptr @cairo_image_surface_create(i32 noundef 0, i32 noundef 1, i32 noundef 1) #13
  %19 = getelementptr inbounds nuw i8, ptr %3, i64 8
  store ptr %18, ptr %19, align 8, !tbaa !79
  %20 = getelementptr inbounds nuw i8, ptr %0, i64 1608
  store i32 0, ptr %20, align 8, !tbaa !49
  %21 = load ptr, ptr %3, align 8, !tbaa !4
  %22 = getelementptr inbounds nuw i8, ptr %21, i64 936
  %23 = load i32, ptr %22, align 8, !tbaa !45
  %24 = call ptr @cairo_create(ptr noundef %18) #13
  %25 = getelementptr inbounds nuw i8, ptr %3, i64 16
  store ptr %24, ptr %25, align 8, !tbaa !55
  %26 = uitofp i32 %23 to double
  call void @cairo_set_font_size(ptr noundef %24, double noundef %26) #13
  %27 = load ptr, ptr %3, align 8, !tbaa !4
  %28 = getelementptr inbounds nuw i8, ptr %27, i64 944
  %29 = load i32, ptr %28, align 8, !tbaa !56
  %30 = uitofp i32 %29 to double
  call void @cairo_set_line_width(ptr noundef %24, double noundef %30) #13
  %31 = load ptr, ptr %3, align 8, !tbaa !4
  call void @output_draw(ptr noundef %31) #13
  call void @cairo_show_page(ptr noundef %24) #13
  call void @cairo_destroy(ptr noundef %24) #13
  store ptr null, ptr %25, align 8, !tbaa !55
  store i32 1, ptr %20, align 8, !tbaa !49
  call void @cairo_surface_destroy(ptr noundef %18) #13
  %32 = getelementptr inbounds nuw i8, ptr %0, i64 1612
  %33 = load i32, ptr %32, align 4, !tbaa !57
  %34 = getelementptr inbounds nuw i8, ptr %0, i64 1616
  %35 = load i32, ptr %34, align 8, !tbaa !58
  %36 = call ptr @cairo_image_surface_create(i32 noundef 0, i32 noundef %33, i32 noundef %35) #13
  store ptr %36, ptr %19, align 8, !tbaa !79
  call void @declare_colors(ptr noundef nonnull %0) #13
  call void @lstopo_prepare_custom_styles(ptr noundef nonnull %0) #13
  %37 = load ptr, ptr %3, align 8, !tbaa !4
  %38 = getelementptr inbounds nuw i8, ptr %37, i64 936
  %39 = load i32, ptr %38, align 8, !tbaa !45
  %40 = load ptr, ptr %19, align 8, !tbaa !79
  %41 = call ptr @cairo_create(ptr noundef %40) #13
  store ptr %41, ptr %25, align 8, !tbaa !55
  %42 = uitofp i32 %39 to double
  call void @cairo_set_font_size(ptr noundef %41, double noundef %42) #13
  %43 = load ptr, ptr %3, align 8, !tbaa !4
  %44 = getelementptr inbounds nuw i8, ptr %43, i64 944
  %45 = load i32, ptr %44, align 8, !tbaa !56
  %46 = uitofp i32 %45 to double
  call void @cairo_set_line_width(ptr noundef %41, double noundef %46) #13
  %47 = load ptr, ptr %3, align 8, !tbaa !4
  call void @output_draw(ptr noundef %47) #13
  call void @cairo_show_page(ptr noundef %41) #13
  call void @cairo_destroy(ptr noundef %41) #13
  store ptr null, ptr %25, align 8, !tbaa !55
  %48 = load ptr, ptr %19, align 8, !tbaa !79
  %49 = call i32 @cairo_surface_write_to_png_stream(ptr noundef %48, ptr noundef nonnull @topo_cairo_write, ptr noundef nonnull %6) #13
  %50 = load ptr, ptr %19, align 8, !tbaa !79
  call void @cairo_surface_destroy(ptr noundef %50) #13
  %51 = load ptr, ptr @stdout, align 8, !tbaa !26
  %.not23 = icmp eq ptr %6, %51
  br i1 %.not23, label %54, label %52

52:                                               ; preds = %13
  %53 = call i32 @fclose(ptr noundef nonnull %6)
  br label %54

54:                                               ; preds = %52, %13
  call void @destroy_colors(ptr noundef nonnull %0) #13
  br label %55

55:                                               ; preds = %54, %7
  %.0 = phi i32 [ 0, %54 ], [ -1, %7 ]
  call void @llvm.lifetime.end.p0(i64 24, ptr nonnull %3) #13
  ret i32 %.0
}